target datalayout = "e-m:e-p270:32:32-p271:32:32-p272:64:64-i64:64-i128:128-f80:128-n8:16:32:64-S128"
target triple = "x86_64-unknown-linux-gnu"

%"class.llvh::DenseMap.0" = type <{ ptr, i32, i32, i32, [4 x i8] }>
%"class.llvh::SmallVectorBase" = type { ptr, i32, i32 }
%"class.hermes::hbc::HBCISel" = type { ptr, ptr, ptr, ptr, ptr, %"class.llvh::DenseMap.22", %"class.llvh::DenseSet", %"class.llvh::SmallVector.28", %"class.llvh::DenseMap.0", %"class.llvh::DenseMap.34", ptr, %"class.llvh::DenseMap.37", %"class.hermes::Identifier", i8, i8, [6 x i8], %"class.llvh::DenseMap.40", %"class.llvh::DenseMap.40", ptr, ptr }
%"class.llvh::DenseMap.22" = type <{ ptr, i32, i32, i32, [4 x i8] }>
%"class.llvh::DenseSet" = type { %"class.llvh::detail::DenseSetImpl" }
%"class.llvh::detail::DenseSetImpl" = type { %"class.llvh::DenseMap.25" }
%"class.llvh::DenseMap.25" = type <{ ptr, i32, i32, i32, [4 x i8] }>
%"class.llvh::SmallVector.28" = type { %"class.llvh::SmallVectorImpl.29", %"struct.llvh::SmallVectorStorage.32" }
%"class.llvh::SmallVectorImpl.29" = type { %"class.llvh::SmallVectorTemplateBase.30" }
%"class.llvh::SmallVectorTemplateBase.30" = type { %"class.llvh::SmallVectorTemplateCommon.31" }
%"class.llvh::SmallVectorTemplateCommon.31" = type { %"class.llvh::SmallVectorBase" }
%"struct.llvh::SmallVectorStorage.32" = type { [8 x %"struct.llvh::AlignedCharArrayUnion.33"] }
%"struct.llvh::AlignedCharArrayUnion.33" = type { %"struct.llvh::AlignedCharArray.21" }
%"struct.llvh::AlignedCharArray.21" = type { [16 x i8] }
%"class.llvh::DenseMap.34" = type <{ ptr, i32, i32, i32, [4 x i8] }>
%"class.llvh::DenseMap.37" = type <{ ptr, i32, i32, i32, [4 x i8] }>
%"class.hermes::Identifier" = type { ptr }
%"class.llvh::DenseMap.40" = type <{ ptr, i32, i32, i32, [4 x i8] }>
%"class.std::vector.61" = type { %"struct.std::_Vector_base.62" }
%"struct.std::_Vector_base.62" = type { %"struct.std::_Vector_base<unsigned int, std::allocator<unsigned int>>::_Vector_impl" }
%"struct.std::_Vector_base<unsigned int, std::allocator<unsigned int>>::_Vector_impl" = type { %"struct.std::_Vector_base<unsigned int, std::allocator<unsigned int>>::_Vector_impl_data" }
%"struct.std::_Vector_base<unsigned int, std::allocator<unsigned int>>::_Vector_impl_data" = type { ptr, ptr, ptr }
%"struct.hermes::hbc::DebugSourceLocation" = type { i32, i32, i32, i32, i32, i32, i32, i32 }
%"class.hermes::OptValue" = type <{ i32, i8, [3 x i8] }>
%"class.hermes::hbc::BytecodeFunctionGenerator" = type { %"class.hermes::hbc::BytecodeInstructionGenerator.base", ptr, %"class.std::vector.46", i32, %"struct.hermes::hbc::DebugSourceLocation", %"class.std::vector.51", %"class.std::vector.56", %"class.hermes::OptValue", i8, i32, i8, i8, i8, %"class.std::vector.61" }
%"class.hermes::hbc::BytecodeInstructionGenerator.base" = type <{ %"class.std::vector", i8 }>
%"class.std::vector" = type { %"struct.std::_Vector_base" }
%"struct.std::_Vector_base" = type { %"struct.std::_Vector_base<unsigned char, std::allocator<unsigned char>>::_Vector_impl" }
%"struct.std::_Vector_base<unsigned char, std::allocator<unsigned char>>::_Vector_impl" = type { %"struct.std::_Vector_base<unsigned char, std::allocator<unsigned char>>::_Vector_impl_data" }
%"struct.std::_Vector_base<unsigned char, std::allocator<unsigned char>>::_Vector_impl_data" = type { ptr, ptr, ptr }
%"class.std::vector.46" = type { %"struct.std::_Vector_base.47" }
%"struct.std::_Vector_base.47" = type { %"struct.std::_Vector_base<hermes::hbc::HBCExceptionHandlerInfo, std::allocator<hermes::hbc::HBCExceptionHandlerInfo>>::_Vector_impl" }
%"struct.std::_Vector_base<hermes::hbc::HBCExceptionHandlerInfo, std::allocator<hermes::hbc::HBCExceptionHandlerInfo>>::_Vector_impl" = type { %"struct.std::_Vector_base<hermes::hbc::HBCExceptionHandlerInfo, std::allocator<hermes::hbc::HBCExceptionHandlerInfo>>::_Vector_impl_data" }
%"struct.std::_Vector_base<hermes::hbc::HBCExceptionHandlerInfo, std::allocator<hermes::hbc::HBCExceptionHandlerInfo>>::_Vector_impl_data" = type { ptr, ptr, ptr }
%"class.std::vector.51" = type { %"struct.std::_Vector_base.52" }
%"struct.std::_Vector_base.52" = type { %"struct.std::_Vector_base<hermes::hbc::DebugSourceLocation, std::allocator<hermes::hbc::DebugSourceLocation>>::_Vector_impl" }
%"struct.std::_Vector_base<hermes::hbc::DebugSourceLocation, std::allocator<hermes::hbc::DebugSourceLocation>>::_Vector_impl" = type { %"struct.std::_Vector_base<hermes::hbc::DebugSourceLocation, std::allocator<hermes::hbc::DebugSourceLocation>>::_Vector_impl_data" }
%"struct.std::_Vector_base<hermes::hbc::DebugSourceLocation, std::allocator<hermes::hbc::DebugSourceLocation>>::_Vector_impl_data" = type { ptr, ptr, ptr }
%"class.std::vector.56" = type { %"struct.std::_Vector_base.57" }
%"struct.std::_Vector_base.57" = type { %"struct.std::_Vector_base<hermes::hbc::DebugTextifiedCallee, std::allocator<hermes::hbc::DebugTextifiedCallee>>::_Vector_impl" }
%"struct.std::_Vector_base<hermes::hbc::DebugTextifiedCallee, std::allocator<hermes::hbc::DebugTextifiedCallee>>::_Vector_impl" = type { %"struct.std::_Vector_base<hermes::hbc::DebugTextifiedCallee, std::allocator<hermes::hbc::DebugTextifiedCallee>>::_Vector_impl_data" }
%"struct.std::_Vector_base<hermes::hbc::DebugTextifiedCallee, std::allocator<hermes::hbc::DebugTextifiedCallee>>::_Vector_impl_data" = type { ptr, ptr, ptr }

; Function Attrs: mustprogress nounwind uwtable
define linkonce_odr hidden void @_ZN6hermes3hbc25BytecodeFunctionGenerator25setHighestWriteCacheIndexEh(ptr noundef nonnull align 8 dereferenceable(200) %this, i8 noundef zeroext %sz) #0 comdat align 2 {
entry:
  %this.addr = alloca ptr, align 8
  %sz.addr = alloca i8, align 1
  store ptr %this, ptr %this.addr, align 8
  store i8 %sz, ptr %sz.addr, align 1
  %this1 = load ptr, ptr %this.addr, align 8
  %0 = load i8, ptr %sz.addr, align 1
  %highestWriteCacheIndex_ = getelementptr inbounds %"class.hermes::hbc::BytecodeFunctionGenerator", ptr %this1, i32 0, i32 12
  store i8 %0, ptr %highestWriteCacheIndex_, align 2
  ret void
}

; Function Attrs: mustprogress nounwind uwtable
define linkonce_odr hidden void @_ZN6hermes3hbc25BytecodeFunctionGenerator24setHighestReadCacheIndexEh(ptr noundef nonnull align 8 dereferenceable(200) %this, i8 noundef zeroext %sz) #0 comdat align 2 {
entry:
  %this.addr = alloca ptr, align 8
  %sz.addr = alloca i8, align 1
  store ptr %this, ptr %this.addr, align 8
  store i8 %sz, ptr %sz.addr, align 1
  %this1 = load ptr, ptr %this.addr, align 8
  %0 = load i8, ptr %sz.addr, align 1
  %highestReadCacheIndex_ = getelementptr inbounds %"class.hermes::hbc::BytecodeFunctionGenerator", ptr %this1, i32 0, i32 11
  store i8 %0, ptr %highestReadCacheIndex_, align 1
  ret void
}

; Function Attrs: mustprogress nounwind uwtable
define hidden void @_ZN6hermes3hbc7HBCISel27populatePropertyCachingInfoEv(ptr noundef nonnull align 8 dereferenceable(392) %this) #0 align 2 {
entry:
  %this.addr = alloca ptr, align 8
  store ptr %this, ptr %this.addr, align 8
  %this1 = load ptr, ptr %this.addr, align 8
  %BCFGen_ = getelementptr inbounds %"class.hermes::hbc::HBCISel", ptr %this1, i32 0, i32 1
  %0 = load ptr, ptr %BCFGen_, align 8
  %lastPropertyReadCacheIndex_ = getelementptr inbounds %"class.hermes::hbc::HBCISel", ptr %this1, i32 0, i32 13
  %1 = load i8, ptr %lastPropertyReadCacheIndex_, align 8
  call void @_ZN6hermes3hbc25BytecodeFunctionGenerator24setHighestReadCacheIndexEh(ptr noundef nonnull align 8 dereferenceable(200) %0, i8 noundef zeroext %1)
  %BCFGen_2 = getelementptr inbounds %"class.hermes::hbc::HBCISel", ptr %this1, i32 0, i32 1
  %2 = load ptr, ptr %BCFGen_2, align 8
  %lastPropertyWriteCacheIndex_ = getelementptr inbounds %"class.hermes::hbc::HBCISel", ptr %this1, i32 0, i32 14
  %3 = load i8, ptr %lastPropertyWriteCacheIndex_, align 1
  call void @_ZN6hermes3hbc25BytecodeFunctionGenerator25setHighestWriteCacheIndexEh(ptr noundef nonnull align 8 dereferenceable(200) %2, i8 noundef zeroext %3)
  ret void
}