; Function Attrs: mustprogress nofree norecurse nosync nounwind willreturn memory(write, argmem: readwrite, inaccessiblemem: none) uwtable
define hidden void @_ZN6hermes3hbc7HBCISel27populatePropertyCachingInfoEv(ptr nocapture noundef nonnull readonly align 8 dereferenceable(392) %this) local_unnamed_addr #6 align 2 {
entry:
  %BCFGen_ = getelementptr inbounds i8, ptr %this, i64 8
  %0 = load ptr, ptr %BCFGen_, align 8
  %lastPropertyReadCacheIndex_ = getelementptr inbounds i8, ptr %this, i64 320
  %1 = load i8, ptr %lastPropertyReadCacheIndex_, align 8
  %highestReadCacheIndex_.i = getelementptr inbounds i8, ptr %0, i64 169
  store i8 %1, ptr %highestReadCacheIndex_.i, align 1
  %2 = load ptr, ptr %BCFGen_, align 8
  %lastPropertyWriteCacheIndex_ = getelementptr inbounds i8, ptr %this, i64 321
  %3 = load i8, ptr %lastPropertyWriteCacheIndex_, align 1
  %highestWriteCacheIndex_.i = getelementptr inbounds i8, ptr %2, i64 170
  store i8 %3, ptr %highestWriteCacheIndex_.i, align 2
  ret void
}